target datalayout = "e-m:e-p270:32:32-p271:32:32-p272:64:64-i64:64-i128:128-f80:128-n8:16:32:64-S128"
target triple = "x86_64-pc-linux-gnu"

%struct.pg_compress_specification = type { i32, i32, i32, i32, i8, ptr }
%struct._archiveHandle = type { %struct.Archive, i32, ptr, ptr, i64, i64, i32, %struct.sqlparseInfo, i64, i32, ptr, i64, i64, i64, ptr, ptr, ptr, ptr, ptr, ptr, ptr, ptr, ptr, ptr, ptr, ptr, ptr, ptr, ptr, ptr, ptr, ptr, ptr, ptr, ptr, ptr, ptr, ptr, ptr, ptr, ptr, ptr, ptr, ptr, i32, i32, i8, i32, i8, i32, ptr, ptr, ptr, ptr, i32, i32, ptr, ptr, ptr, %struct.pg_compress_specification, i8, i32, i32, ptr, ptr, ptr, ptr, ptr, i32, ptr, i64, i64, i32, i32, i32, i32, ptr, ptr }
%struct.Archive = type { ptr, ptr, i32, ptr, i32, i8, i32, i32, i32, ptr, i32, i8, ptr, ptr, i8, i32, ptr }
%struct.sqlparseInfo = type { i32, i8, ptr }
%struct.tm = type { i32, i32, i32, i32, i32, i32, i32, i32, i32, i64, ptr }

@.str.106 = private unnamed_addr constant [6 x i8] c"PGDMP\00", align 1
@.str.107 = private unnamed_addr constant [8 x i8] c"18devel\00", align 1

; Function Attrs: nounwind uwtable
define dso_local i64 @WriteInt(ptr noundef %0, i32 noundef %1) #0 {
  %3 = alloca ptr, align 8
  %4 = alloca i32, align 4
  %5 = alloca i32, align 4
  store ptr %0, ptr %3, align 8
  store i32 %1, ptr %4, align 4
  call void @llvm.lifetime.start.p0(i64 4, ptr %5) #11
  %6 = load i32, ptr %4, align 4
  %7 = icmp slt i32 %6, 0
  br i1 %7, label %8, label %16

8:                                                ; preds = %2
  %9 = load ptr, ptr %3, align 8
  %10 = getelementptr inbounds nuw %struct._archiveHandle, ptr %9, i32 0, i32 18
  %11 = load ptr, ptr %10, align 8
  %12 = load ptr, ptr %3, align 8
  %13 = call i32 %11(ptr noundef %12, i32 noundef 1)
  %14 = load i32, ptr %4, align 4
  %15 = sub i32 0, %14
  store i32 %15, ptr %4, align 4
  br label %22

16:                                               ; preds = %2
  %17 = load ptr, ptr %3, align 8
  %18 = getelementptr inbounds nuw %struct._archiveHandle, ptr %17, i32 0, i32 18
  %19 = load ptr, ptr %18, align 8
  %20 = load ptr, ptr %3, align 8
  %21 = call i32 %19(ptr noundef %20, i32 noundef 0)
  br label %22

22:                                               ; preds = %16, %8
  store i32 0, ptr %5, align 4
  br label %23

23:                                               ; preds = %40, %22
  %24 = load i32, ptr %5, align 4
  %25 = sext i32 %24 to i64
  %26 = load ptr, ptr %3, align 8
  %27 = getelementptr inbounds nuw %struct._archiveHandle, ptr %26, i32 0, i32 4
  %28 = load i64, ptr %27, align 8
  %29 = icmp ult i64 %25, %28
  br i1 %29, label %30, label %43

30:                                               ; preds = %23
  %31 = load ptr, ptr %3, align 8
  %32 = getelementptr inbounds nuw %struct._archiveHandle, ptr %31, i32 0, i32 18
  %33 = load ptr, ptr %32, align 8
  %34 = load ptr, ptr %3, align 8
  %35 = load i32, ptr %4, align 4
  %36 = and i32 %35, 255
  %37 = call i32 %33(ptr noundef %34, i32 noundef %36)
  %38 = load i32, ptr %4, align 4
  %39 = ashr i32 %38, 8
  store i32 %39, ptr %4, align 4
  br label %40

40:                                               ; preds = %30
  %41 = load i32, ptr %5, align 4
  %42 = add i32 %41, 1
  store i32 %42, ptr %5, align 4
  br label %23, !llvm.loop !26

43:                                               ; preds = %23
  %44 = load ptr, ptr %3, align 8
  %45 = getelementptr inbounds nuw %struct._archiveHandle, ptr %44, i32 0, i32 4
  %46 = load i64, ptr %45, align 8
  %47 = add i64 %46, 1
  call void @llvm.lifetime.end.p0(i64 4, ptr %5) #11
  ret i64 %47
}

; Function Attrs: nounwind uwtable
define dso_local void @WriteHead(ptr noundef %0) #0 {
  %2 = alloca ptr, align 8
  %3 = alloca %struct.tm, align 8
  store ptr %0, ptr %2, align 8
  call void @llvm.lifetime.start.p0(i64 56, ptr %3) #11
  %4 = load ptr, ptr %2, align 8
  %5 = getelementptr inbounds nuw %struct._archiveHandle, ptr %4, i32 0, i32 20
  %6 = load ptr, ptr %5, align 8
  %7 = load ptr, ptr %2, align 8
  call void %6(ptr noundef %7, ptr noundef @.str.106, i64 noundef 5)
  %8 = load ptr, ptr %2, align 8
  %9 = getelementptr inbounds nuw %struct._archiveHandle, ptr %8, i32 0, i32 18
  %10 = load ptr, ptr %9, align 8
  %11 = load ptr, ptr %2, align 8
  %12 = load ptr, ptr %2, align 8
  %13 = getelementptr inbounds nuw %struct._archiveHandle, ptr %12, i32 0, i32 1
  %14 = load i32, ptr %13, align 8
  %15 = ashr i32 %14, 16
  %16 = and i32 %15, 255
  %17 = call i32 %10(ptr noundef %11, i32 noundef %16)
  %18 = load ptr, ptr %2, align 8
  %19 = getelementptr inbounds nuw %struct._archiveHandle, ptr %18, i32 0, i32 18
  %20 = load ptr, ptr %19, align 8
  %21 = load ptr, ptr %2, align 8
  %22 = load ptr, ptr %2, align 8
  %23 = getelementptr inbounds nuw %struct._archiveHandle, ptr %22, i32 0, i32 1
  %24 = load i32, ptr %23, align 8
  %25 = ashr i32 %24, 8
  %26 = and i32 %25, 255
  %27 = call i32 %20(ptr noundef %21, i32 noundef %26)
  %28 = load ptr, ptr %2, align 8
  %29 = getelementptr inbounds nuw %struct._archiveHandle, ptr %28, i32 0, i32 18
  %30 = load ptr, ptr %29, align 8
  %31 = load ptr, ptr %2, align 8
  %32 = load ptr, ptr %2, align 8
  %33 = getelementptr inbounds nuw %struct._archiveHandle, ptr %32, i32 0, i32 1
  %34 = load i32, ptr %33, align 8
  %35 = and i32 %34, 255
  %36 = call i32 %30(ptr noundef %31, i32 noundef %35)
  %37 = load ptr, ptr %2, align 8
  %38 = getelementptr inbounds nuw %struct._archiveHandle, ptr %37, i32 0, i32 18
  %39 = load ptr, ptr %38, align 8
  %40 = load ptr, ptr %2, align 8
  %41 = load ptr, ptr %2, align 8
  %42 = getelementptr inbounds nuw %struct._archiveHandle, ptr %41, i32 0, i32 4
  %43 = load i64, ptr %42, align 8
  %44 = trunc i64 %43 to i32
  %45 = call i32 %39(ptr noundef %40, i32 noundef %44)
  %46 = load ptr, ptr %2, align 8
  %47 = getelementptr inbounds nuw %struct._archiveHandle, ptr %46, i32 0, i32 18
  %48 = load ptr, ptr %47, align 8
  %49 = load ptr, ptr %2, align 8
  %50 = load ptr, ptr %2, align 8
  %51 = getelementptr inbounds nuw %struct._archiveHandle, ptr %50, i32 0, i32 5
  %52 = load i64, ptr %51, align 8
  %53 = trunc i64 %52 to i32
  %54 = call i32 %48(ptr noundef %49, i32 noundef %53)
  %55 = load ptr, ptr %2, align 8
  %56 = getelementptr inbounds nuw %struct._archiveHandle, ptr %55, i32 0, i32 18
  %57 = load ptr, ptr %56, align 8
  %58 = load ptr, ptr %2, align 8
  %59 = load ptr, ptr %2, align 8
  %60 = getelementptr inbounds nuw %struct._archiveHandle, ptr %59, i32 0, i32 6
  %61 = load i32, ptr %60, align 8
  %62 = call i32 %57(ptr noundef %58, i32 noundef %61)
  %63 = load ptr, ptr %2, align 8
  %64 = getelementptr inbounds nuw %struct._archiveHandle, ptr %63, i32 0, i32 18
  %65 = load ptr, ptr %64, align 8
  %66 = load ptr, ptr %2, align 8
  %67 = load ptr, ptr %2, align 8
  %68 = getelementptr inbounds nuw %struct._archiveHandle, ptr %67, i32 0, i32 59
  %69 = getelementptr inbounds nuw %struct.pg_compress_specification, ptr %68, i32 0, i32 0
  %70 = load i32, ptr %69, align 8
  %71 = call i32 %65(ptr noundef %66, i32 noundef %70)
  %72 = load ptr, ptr %2, align 8
  %73 = getelementptr inbounds nuw %struct._archiveHandle, ptr %72, i32 0, i32 8
  %74 = call ptr @localtime(ptr noundef %73) #11
  call void @llvm.memcpy.p0.p0.i64(ptr align 8 %3, ptr align 8 %74, i64 56, i1 false)
  %75 = load ptr, ptr %2, align 8
  %76 = getelementptr inbounds nuw %struct.tm, ptr %3, i32 0, i32 0
  %77 = load i32, ptr %76, align 8
  %78 = call i64 @WriteInt(ptr noundef %75, i32 noundef %77)
  %79 = load ptr, ptr %2, align 8
  %80 = getelementptr inbounds nuw %struct.tm, ptr %3, i32 0, i32 1
  %81 = load i32, ptr %80, align 4
  %82 = call i64 @WriteInt(ptr noundef %79, i32 noundef %81)
  %83 = load ptr, ptr %2, align 8
  %84 = getelementptr inbounds nuw %struct.tm, ptr %3, i32 0, i32 2
  %85 = load i32, ptr %84, align 8
  %86 = call i64 @WriteInt(ptr noundef %83, i32 noundef %85)
  %87 = load ptr, ptr %2, align 8
  %88 = getelementptr inbounds nuw %struct.tm, ptr %3, i32 0, i32 3
  %89 = load i32, ptr %88, align 4
  %90 = call i64 @WriteInt(ptr noundef %87, i32 noundef %89)
  %91 = load ptr, ptr %2, align 8
  %92 = getelementptr inbounds nuw %struct.tm, ptr %3, i32 0, i32 4
  %93 = load i32, ptr %92, align 8
  %94 = call i64 @WriteInt(ptr noundef %91, i32 noundef %93)
  %95 = load ptr, ptr %2, align 8
  %96 = getelementptr inbounds nuw %struct.tm, ptr %3, i32 0, i32 5
  %97 = load i32, ptr %96, align 4
  %98 = call i64 @WriteInt(ptr noundef %95, i32 noundef %97)
  %99 = load ptr, ptr %2, align 8
  %100 = getelementptr inbounds nuw %struct.tm, ptr %3, i32 0, i32 8
  %101 = load i32, ptr %100, align 8
  %102 = call i64 @WriteInt(ptr noundef %99, i32 noundef %101)
  %103 = load ptr, ptr %2, align 8
  %104 = load ptr, ptr %2, align 8
  %105 = getelementptr inbounds nuw %struct._archiveHandle, ptr %104, i32 0, i32 42
  %106 = load ptr, ptr %105, align 8
  %107 = call ptr @PQdb(ptr noundef %106)
  %108 = call i64 @WriteStr(ptr noundef %103, ptr noundef %107)
  %109 = load ptr, ptr %2, align 8
  %110 = load ptr, ptr %2, align 8
  %111 = getelementptr inbounds nuw %struct._archiveHandle, ptr %110, i32 0, i32 0
  %112 = getelementptr inbounds nuw %struct.Archive, ptr %111, i32 0, i32 3
  %113 = load ptr, ptr %112, align 8
  %114 = call i64 @WriteStr(ptr noundef %109, ptr noundef %113)
  %115 = load ptr, ptr %2, align 8
  %116 = call i64 @WriteStr(ptr noundef %115, ptr noundef @.str.107)
  call void @llvm.lifetime.end.p0(i64 56, ptr %3) #11
  ret void
}