; Function Attrs: nounwind uwtable
define dso_local void @WriteHead(ptr noundef %0) local_unnamed_addr #0 {
  %2 = getelementptr inbounds nuw i8, ptr %0, i64 264
  %3 = load ptr, ptr %2, align 8
  tail call void %3(ptr noundef %0, ptr noundef nonnull @.str.106, i64 noundef 5) #22
  %4 = getelementptr inbounds nuw i8, ptr %0, i64 248
  %5 = load ptr, ptr %4, align 8
  %6 = getelementptr inbounds nuw i8, ptr %0, i64 104
  %7 = load i32, ptr %6, align 8
  %8 = lshr i32 %7, 16
  %9 = and i32 %8, 255
  %10 = tail call i32 %5(ptr noundef %0, i32 noundef %9) #22
  %11 = load ptr, ptr %4, align 8
  %12 = load i32, ptr %6, align 8
  %13 = lshr i32 %12, 8
  %14 = and i32 %13, 255
  %15 = tail call i32 %11(ptr noundef %0, i32 noundef %14) #22
  %16 = load ptr, ptr %4, align 8
  %17 = load i32, ptr %6, align 8
  %18 = and i32 %17, 255
  %19 = tail call i32 %16(ptr noundef %0, i32 noundef %18) #22
  %20 = load ptr, ptr %4, align 8
  %21 = getelementptr inbounds nuw i8, ptr %0, i64 128
  %22 = load i64, ptr %21, align 8
  %23 = trunc i64 %22 to i32
  %24 = tail call i32 %20(ptr noundef %0, i32 noundef %23) #22
  %25 = load ptr, ptr %4, align 8
  %26 = getelementptr inbounds nuw i8, ptr %0, i64 136
  %27 = load i64, ptr %26, align 8
  %28 = trunc i64 %27 to i32
  %29 = tail call i32 %25(ptr noundef %0, i32 noundef %28) #22
  %30 = load ptr, ptr %4, align 8
  %31 = getelementptr inbounds nuw i8, ptr %0, i64 144
  %32 = load i32, ptr %31, align 8
  %33 = tail call i32 %30(ptr noundef %0, i32 noundef %32) #22
  %34 = load ptr, ptr %4, align 8
  %35 = getelementptr inbounds nuw i8, ptr %0, i64 544
  %36 = load i32, ptr %35, align 8
  %37 = tail call i32 %34(ptr noundef %0, i32 noundef %36) #22
  %38 = getelementptr inbounds nuw i8, ptr %0, i64 168
  %39 = tail call ptr @localtime(ptr noundef nonnull %38) #22
  %.sroa.0.0.copyload = load i32, ptr %39, align 8
  %.sroa.4.0..sroa_idx = getelementptr inbounds nuw i8, ptr %39, i64 4
  %.sroa.4.0.copyload = load i32, ptr %.sroa.4.0..sroa_idx, align 4
  %.sroa.5.0..sroa_idx = getelementptr inbounds nuw i8, ptr %39, i64 8
  %.sroa.5.0.copyload = load i32, ptr %.sroa.5.0..sroa_idx, align 8
  %.sroa.6.0..sroa_idx = getelementptr inbounds nuw i8, ptr %39, i64 12
  %.sroa.6.0.copyload = load i32, ptr %.sroa.6.0..sroa_idx, align 4
  %.sroa.7.0..sroa_idx = getelementptr inbounds nuw i8, ptr %39, i64 16
  %.sroa.7.0.copyload = load i32, ptr %.sroa.7.0..sroa_idx, align 8
  %.sroa.8.0..sroa_idx = getelementptr inbounds nuw i8, ptr %39, i64 20
  %.sroa.8.0.copyload = load i32, ptr %.sroa.8.0..sroa_idx, align 4
  %.sroa.91.0..sroa_idx = getelementptr inbounds nuw i8, ptr %39, i64 32
  %.sroa.91.0.copyload = load i32, ptr %.sroa.91.0..sroa_idx, align 8
  %40 = icmp slt i32 %.sroa.0.0.copyload, 0
  %41 = load ptr, ptr %4, align 8
  br i1 %40, label %42, label %45

42:                                               ; preds = %1
  %43 = tail call i32 %41(ptr noundef nonnull %0, i32 noundef 1) #22
  %44 = sub i32 0, %.sroa.0.0.copyload
  br label %47

45:                                               ; preds = %1
  %46 = tail call i32 %41(ptr noundef nonnull %0, i32 noundef 0) #22
  br label %47

47:                                               ; preds = %45, %42
  %.013.i = phi i32 [ %44, %42 ], [ %.sroa.0.0.copyload, %45 ]
  %48 = load i64, ptr %21, align 8
  %.not.i = icmp eq i64 %48, 0
  br i1 %.not.i, label %WriteInt.exit, label %.lr.ph.i

.lr.ph.i:                                         ; preds = %47, %.lr.ph.i
  %.018.i = phi i32 [ %53, %.lr.ph.i ], [ 0, %47 ]
  %.117.i = phi i32 [ %52, %.lr.ph.i ], [ %.013.i, %47 ]
  %49 = load ptr, ptr %4, align 8
  %50 = and i32 %.117.i, 255
  %51 = tail call i32 %49(ptr noundef nonnull %0, i32 noundef %50) #22
  %52 = ashr i32 %.117.i, 8
  %53 = add i32 %.018.i, 1
  %54 = sext i32 %53 to i64
  %55 = load i64, ptr %21, align 8
  %56 = icmp ugt i64 %55, %54
  br i1 %56, label %.lr.ph.i, label %WriteInt.exit, !llvm.loop !47

WriteInt.exit:                                    ; preds = %.lr.ph.i, %47
  %57 = icmp slt i32 %.sroa.4.0.copyload, 0
  %58 = load ptr, ptr %4, align 8
  br i1 %57, label %59, label %62

59:                                               ; preds = %WriteInt.exit
  %60 = tail call i32 %58(ptr noundef nonnull %0, i32 noundef 1) #22
  %61 = sub i32 0, %.sroa.4.0.copyload
  br label %64

62:                                               ; preds = %WriteInt.exit
  %63 = tail call i32 %58(ptr noundef nonnull %0, i32 noundef 0) #22
  br label %64

64:                                               ; preds = %62, %59
  %.013.i37 = phi i32 [ %61, %59 ], [ %.sroa.4.0.copyload, %62 ]
  %65 = load i64, ptr %21, align 8
  %.not.i38 = icmp eq i64 %65, 0
  br i1 %.not.i38, label %WriteInt.exit44, label %.lr.ph.i39

.lr.ph.i39:                                       ; preds = %64, %.lr.ph.i39
  %.018.i40 = phi i32 [ %70, %.lr.ph.i39 ], [ 0, %64 ]
  %.117.i41 = phi i32 [ %69, %.lr.ph.i39 ], [ %.013.i37, %64 ]
  %66 = load ptr, ptr %4, align 8
  %67 = and i32 %.117.i41, 255
  %68 = tail call i32 %66(ptr noundef nonnull %0, i32 noundef %67) #22
  %69 = ashr i32 %.117.i41, 8
  %70 = add i32 %.018.i40, 1
  %71 = sext i32 %70 to i64
  %72 = load i64, ptr %21, align 8
  %73 = icmp ugt i64 %72, %71
  br i1 %73, label %.lr.ph.i39, label %WriteInt.exit44, !llvm.loop !47

WriteInt.exit44:                                  ; preds = %.lr.ph.i39, %64
  %74 = icmp slt i32 %.sroa.5.0.copyload, 0
  %75 = load ptr, ptr %4, align 8
  br i1 %74, label %76, label %79

76:                                               ; preds = %WriteInt.exit44
  %77 = tail call i32 %75(ptr noundef nonnull %0, i32 noundef 1) #22
  %78 = sub i32 0, %.sroa.5.0.copyload
  br label %81

79:                                               ; preds = %WriteInt.exit44
  %80 = tail call i32 %75(ptr noundef nonnull %0, i32 noundef 0) #22
  br label %81

81:                                               ; preds = %79, %76
  %.013.i45 = phi i32 [ %78, %76 ], [ %.sroa.5.0.copyload, %79 ]
  %82 = load i64, ptr %21, align 8
  %.not.i46 = icmp eq i64 %82, 0
  br i1 %.not.i46, label %WriteInt.exit52, label %.lr.ph.i47

.lr.ph.i47:                                       ; preds = %81, %.lr.ph.i47
  %.018.i48 = phi i32 [ %87, %.lr.ph.i47 ], [ 0, %81 ]
  %.117.i49 = phi i32 [ %86, %.lr.ph.i47 ], [ %.013.i45, %81 ]
  %83 = load ptr, ptr %4, align 8
  %84 = and i32 %.117.i49, 255
  %85 = tail call i32 %83(ptr noundef nonnull %0, i32 noundef %84) #22
  %86 = ashr i32 %.117.i49, 8
  %87 = add i32 %.018.i48, 1
  %88 = sext i32 %87 to i64
  %89 = load i64, ptr %21, align 8
  %90 = icmp ugt i64 %89, %88
  br i1 %90, label %.lr.ph.i47, label %WriteInt.exit52, !llvm.loop !47

WriteInt.exit52:                                  ; preds = %.lr.ph.i47, %81
  %91 = icmp slt i32 %.sroa.6.0.copyload, 0
  %92 = load ptr, ptr %4, align 8
  br i1 %91, label %93, label %96

93:                                               ; preds = %WriteInt.exit52
  %94 = tail call i32 %92(ptr noundef nonnull %0, i32 noundef 1) #22
  %95 = sub i32 0, %.sroa.6.0.copyload
  br label %98

96:                                               ; preds = %WriteInt.exit52
  %97 = tail call i32 %92(ptr noundef nonnull %0, i32 noundef 0) #22
  br label %98

98:                                               ; preds = %96, %93
  %.013.i53 = phi i32 [ %95, %93 ], [ %.sroa.6.0.copyload, %96 ]
  %99 = load i64, ptr %21, align 8
  %.not.i54 = icmp eq i64 %99, 0
  br i1 %.not.i54, label %WriteInt.exit60, label %.lr.ph.i55

.lr.ph.i55:                                       ; preds = %98, %.lr.ph.i55
  %.018.i56 = phi i32 [ %104, %.lr.ph.i55 ], [ 0, %98 ]
  %.117.i57 = phi i32 [ %103, %.lr.ph.i55 ], [ %.013.i53, %98 ]
  %100 = load ptr, ptr %4, align 8
  %101 = and i32 %.117.i57, 255
  %102 = tail call i32 %100(ptr noundef nonnull %0, i32 noundef %101) #22
  %103 = ashr i32 %.117.i57, 8
  %104 = add i32 %.018.i56, 1
  %105 = sext i32 %104 to i64
  %106 = load i64, ptr %21, align 8
  %107 = icmp ugt i64 %106, %105
  br i1 %107, label %.lr.ph.i55, label %WriteInt.exit60, !llvm.loop !47

WriteInt.exit60:                                  ; preds = %.lr.ph.i55, %98
  %108 = icmp slt i32 %.sroa.7.0.copyload, 0
  %109 = load ptr, ptr %4, align 8
  br i1 %108, label %110, label %113

110:                                              ; preds = %WriteInt.exit60
  %111 = tail call i32 %109(ptr noundef nonnull %0, i32 noundef 1) #22
  %112 = sub i32 0, %.sroa.7.0.copyload
  br label %115

113:                                              ; preds = %WriteInt.exit60
  %114 = tail call i32 %109(ptr noundef nonnull %0, i32 noundef 0) #22
  br label %115

115:                                              ; preds = %113, %110
  %.013.i61 = phi i32 [ %112, %110 ], [ %.sroa.7.0.copyload, %113 ]
  %116 = load i64, ptr %21, align 8
  %.not.i62 = icmp eq i64 %116, 0
  br i1 %.not.i62, label %WriteInt.exit68, label %.lr.ph.i63

.lr.ph.i63:                                       ; preds = %115, %.lr.ph.i63
  %.018.i64 = phi i32 [ %121, %.lr.ph.i63 ], [ 0, %115 ]
  %.117.i65 = phi i32 [ %120, %.lr.ph.i63 ], [ %.013.i61, %115 ]
  %117 = load ptr, ptr %4, align 8
  %118 = and i32 %.117.i65, 255
  %119 = tail call i32 %117(ptr noundef nonnull %0, i32 noundef %118) #22
  %120 = ashr i32 %.117.i65, 8
  %121 = add i32 %.018.i64, 1
  %122 = sext i32 %121 to i64
  %123 = load i64, ptr %21, align 8
  %124 = icmp ugt i64 %123, %122
  br i1 %124, label %.lr.ph.i63, label %WriteInt.exit68, !llvm.loop !47

WriteInt.exit68:                                  ; preds = %.lr.ph.i63, %115
  %125 = icmp slt i32 %.sroa.8.0.copyload, 0
  %126 = load ptr, ptr %4, align 8
  br i1 %125, label %127, label %130

127:                                              ; preds = %WriteInt.exit68
  %128 = tail call i32 %126(ptr noundef nonnull %0, i32 noundef 1) #22
  %129 = sub i32 0, %.sroa.8.0.copyload
  br label %132

130:                                              ; preds = %WriteInt.exit68
  %131 = tail call i32 %126(ptr noundef nonnull %0, i32 noundef 0) #22
  br label %132

132:                                              ; preds = %130, %127
  %.013.i69 = phi i32 [ %129, %127 ], [ %.sroa.8.0.copyload, %130 ]
  %133 = load i64, ptr %21, align 8
  %.not.i70 = icmp eq i64 %133, 0
  br i1 %.not.i70, label %WriteInt.exit76, label %.lr.ph.i71

.lr.ph.i71:                                       ; preds = %132, %.lr.ph.i71
  %.018.i72 = phi i32 [ %138, %.lr.ph.i71 ], [ 0, %132 ]
  %.117.i73 = phi i32 [ %137, %.lr.ph.i71 ], [ %.013.i69, %132 ]
  %134 = load ptr, ptr %4, align 8
  %135 = and i32 %.117.i73, 255
  %136 = tail call i32 %134(ptr noundef nonnull %0, i32 noundef %135) #22
  %137 = ashr i32 %.117.i73, 8
  %138 = add i32 %.018.i72, 1
  %139 = sext i32 %138 to i64
  %140 = load i64, ptr %21, align 8
  %141 = icmp ugt i64 %140, %139
  br i1 %141, label %.lr.ph.i71, label %WriteInt.exit76, !llvm.loop !47

WriteInt.exit76:                                  ; preds = %.lr.ph.i71, %132
  %142 = icmp slt i32 %.sroa.91.0.copyload, 0
  %143 = load ptr, ptr %4, align 8
  br i1 %142, label %144, label %147

144:                                              ; preds = %WriteInt.exit76
  %145 = tail call i32 %143(ptr noundef nonnull %0, i32 noundef 1) #22
  %146 = sub i32 0, %.sroa.91.0.copyload
  br label %149

147:                                              ; preds = %WriteInt.exit76
  %148 = tail call i32 %143(ptr noundef nonnull %0, i32 noundef 0) #22
  br label %149

149:                                              ; preds = %147, %144
  %.013.i77 = phi i32 [ %146, %144 ], [ %.sroa.91.0.copyload, %147 ]
  %150 = load i64, ptr %21, align 8
  %.not.i78 = icmp eq i64 %150, 0
  br i1 %.not.i78, label %WriteInt.exit84, label %.lr.ph.i79

.lr.ph.i79:                                       ; preds = %149, %.lr.ph.i79
  %.018.i80 = phi i32 [ %155, %.lr.ph.i79 ], [ 0, %149 ]
  %.117.i81 = phi i32 [ %154, %.lr.ph.i79 ], [ %.013.i77, %149 ]
  %151 = load ptr, ptr %4, align 8
  %152 = and i32 %.117.i81, 255
  %153 = tail call i32 %151(ptr noundef nonnull %0, i32 noundef %152) #22
  %154 = ashr i32 %.117.i81, 8
  %155 = add i32 %.018.i80, 1
  %156 = sext i32 %155 to i64
  %157 = load i64, ptr %21, align 8
  %158 = icmp ugt i64 %157, %156
  br i1 %158, label %.lr.ph.i79, label %WriteInt.exit84, !llvm.loop !47

WriteInt.exit84:                                  ; preds = %.lr.ph.i79, %149
  %159 = getelementptr inbounds nuw i8, ptr %0, i64 440
  %160 = load ptr, ptr %159, align 8
  %161 = tail call ptr @PQdb(ptr noundef %160) #22
  %162 = tail call i64 @WriteStr(ptr noundef nonnull %0, ptr noundef %161)
  %163 = getelementptr inbounds nuw i8, ptr %0, i64 24
  %164 = load ptr, ptr %163, align 8
  %165 = tail call i64 @WriteStr(ptr noundef nonnull %0, ptr noundef %164)
  %166 = load ptr, ptr %4, align 8
  %167 = tail call i32 %166(ptr noundef nonnull %0, i32 noundef 0) #22
  %168 = load i64, ptr %21, align 8
  %.not.i.i = icmp eq i64 %168, 0
  br i1 %.not.i.i, label %WriteStr.exit, label %.lr.ph.i.i

.lr.ph.i.i:                                       ; preds = %WriteInt.exit84, %.lr.ph.i.i
  %.018.i.i = phi i32 [ %171, %.lr.ph.i.i ], [ 0, %WriteInt.exit84 ]
  %.117.i.i = phi i32 [ 0, %.lr.ph.i.i ], [ 7, %WriteInt.exit84 ]
  %169 = load ptr, ptr %4, align 8
  %170 = tail call i32 %169(ptr noundef nonnull %0, i32 noundef %.117.i.i) #22
  %171 = add i32 %.018.i.i, 1
  %172 = sext i32 %171 to i64
  %173 = load i64, ptr %21, align 8
  %174 = icmp ugt i64 %173, %172
  br i1 %174, label %.lr.ph.i.i, label %WriteStr.exit, !llvm.loop !47

WriteStr.exit:                                    ; preds = %.lr.ph.i.i, %WriteInt.exit84
  %175 = load ptr, ptr %2, align 8
  tail call void %175(ptr noundef nonnull %0, ptr noundef nonnull @.str.107, i64 noundef 7) #22
  ret void
}